target datalayout = "e-m:e-p270:32:32-p271:32:32-p272:64:64-i64:64-i128:128-f80:128-n8:16:32:64-S128"
target triple = "x86_64-pc-linux-gnu"

%struct._VAConfigAttrib = type { i32, i32 }
%struct.AVCodecContext = type { ptr, i32, i32, ptr, i32, i32, ptr, ptr, ptr, i64, i32, i32, ptr, i32, %struct.AVRational, %struct.AVRational, %struct.AVRational, i32, i32, i32, i32, i32, %struct.AVRational, i32, i32, i32, i32, i32, i32, i32, i32, i32, i32, i32, ptr, ptr, i32, float, float, float, float, float, float, float, float, float, i32, i32, i32, i32, i32, i32, i32, i32, i32, i32, i32, i32, ptr, ptr, ptr, i32, i32, i32, i32, i32, i32, i32, i32, i32, i32, %struct.AVChannelLayout, i32, i32, i32, i32, i32, i32, i32, i32, ptr, i32, i32, i32, float, float, i32, i32, i32, i32, i32, ptr, i64, i64, float, float, i32, i32, ptr, ptr, i32, i32, i32, i32, i32, ptr, ptr, ptr, ptr, i32, i32, [8 x i64], i32, i32, i32, i32, i32, i32, i32, ptr, ptr, i32, i32, i32, i32, i32, i32, i32, i32, i32, i32, ptr, ptr, i32, i32, ptr, ptr, ptr, ptr, i32, i32, i64, i32, i32, i64, ptr, i64, ptr, i32, ptr, i32 }
%struct.AVRational = type { i32, i32 }
%struct.AVChannelLayout = type { i32, i32, %union.anon, ptr }
%union.anon = type { i64 }
%struct.VAAPIEncodeContext = type { %struct.FFHWBaseEncodeContext, ptr, i32, i32, i32, i32, i32, i32, ptr, ptr, i32, i32, i32, i32, i32, i32, [4 x %struct._VAConfigAttrib], i32, i32, i32, ptr, ptr, [4 x i32], [4 x ptr], [4 x i64], i32, %struct._VAEncMiscParameterRateControl, %struct._VAEncMiscParameterHRD, %struct._VAEncMiscParameterFrameRate, %struct._VAEncMiscParameterBufferMaxFrameSize, %struct._VAEncMiscParameterBufferQualityLevel, ptr, ptr, i32, i32, i32, i32, i32, i32, [20 x i32], [22 x i32], [21 x i32], [23 x i32], i32, i32, ptr, i32, i32 }
%struct.FFHWBaseEncodeContext = type { ptr, ptr, ptr, i32, i32, i32, i32, i32, i32, ptr, ptr, ptr, ptr, ptr, ptr, ptr, ptr, [2 x ptr], i32, i64, i64, i64, i64, i64, i64, i64, [112 x i64], i32, i32, i32, i32, i32, i32, i32, i32, i32, i32, i32, i32, i32, i32, i32, i32, ptr, i32, ptr, i32, ptr }
%struct._VAEncMiscParameterRateControl = type { i32, i32, i32, i32, i32, i32, %union.anon.0, i32, i32, i32, i32, [4 x i32] }
%union.anon.0 = type { %struct.anon }
%struct.anon = type { i32 }
%struct._VAEncMiscParameterHRD = type { i32, i32, [4 x i32] }
%struct._VAEncMiscParameterFrameRate = type { i32, %union.anon.1, [4 x i32] }
%union.anon.1 = type { %struct.anon.2 }
%struct.anon.2 = type { i32 }
%struct._VAEncMiscParameterBufferMaxFrameSize = type { i32, i32, [4 x i32] }
%struct._VAEncMiscParameterBufferQualityLevel = type { i32, [4 x i32] }
%struct.AVVAAPIDeviceContext = type { ptr, i32 }
%struct.VAAPIEncodePicture = type { ptr, i32, i32, i32, ptr, ptr, i32, ptr, i32, ptr, i32, [1024 x i8], i64 }

@.str.40 = private unnamed_addr constant [55 x i8] c"Failed to create parameter buffer (type %d): %d (%s).\0A\00", align 1
@.str.41 = private unnamed_addr constant [27 x i8] c"Param buffer (%d) is %#x.\0A\00", align 1

; Function Attrs: nounwind uwtable
define internal i32 @vaapi_encode_make_param_buffer(ptr noundef %0, ptr noundef %1, i32 noundef %2, ptr noundef %3, i64 noundef %4) #0 {
  %6 = alloca i32, align 4
  %7 = alloca ptr, align 8
  %8 = alloca ptr, align 8
  %9 = alloca i32, align 4
  %10 = alloca ptr, align 8
  %11 = alloca i64, align 8
  %12 = alloca ptr, align 8
  %13 = alloca i32, align 4
  %14 = alloca ptr, align 8
  %15 = alloca i32, align 4
  %16 = alloca i32, align 4
  store ptr %0, ptr %7, align 8, !tbaa !4
  store ptr %1, ptr %8, align 8, !tbaa !234
  store i32 %2, ptr %9, align 4, !tbaa !37
  store ptr %3, ptr %10, align 8, !tbaa !133
  store i64 %4, ptr %11, align 8, !tbaa !102
  call void @llvm.lifetime.start.p0(i64 8, ptr %12) #10
  %17 = load ptr, ptr %7, align 8, !tbaa !4
  %18 = getelementptr inbounds nuw %struct.AVCodecContext, ptr %17, i32 0, i32 6
  %19 = load ptr, ptr %18, align 8, !tbaa !11
  store ptr %19, ptr %12, align 8, !tbaa !33
  call void @llvm.lifetime.start.p0(i64 4, ptr %13) #10
  call void @llvm.lifetime.start.p0(i64 8, ptr %14) #10
  call void @llvm.lifetime.start.p0(i64 4, ptr %15) #10
  %20 = load ptr, ptr %8, align 8, !tbaa !234
  %21 = getelementptr inbounds nuw %struct.VAAPIEncodePicture, ptr %20, i32 0, i32 4
  %22 = load ptr, ptr %21, align 8, !tbaa !316
  %23 = load ptr, ptr %8, align 8, !tbaa !234
  %24 = getelementptr inbounds nuw %struct.VAAPIEncodePicture, ptr %23, i32 0, i32 3
  %25 = load i32, ptr %24, align 8, !tbaa !262
  %26 = add nsw i32 %25, 1
  %27 = sext i32 %26 to i64
  %28 = call ptr @av_realloc_array(ptr noundef %22, i64 noundef 4, i64 noundef %27)
  store ptr %28, ptr %14, align 8, !tbaa !226
  %29 = load ptr, ptr %14, align 8, !tbaa !226
  %30 = icmp ne ptr %29, null
  br i1 %30, label %32, label %31

31:                                               ; preds = %5
  store i32 -12, ptr %6, align 4
  store i32 1, ptr %16, align 4
  br label %71

32:                                               ; preds = %5
  %33 = load ptr, ptr %14, align 8, !tbaa !226
  %34 = load ptr, ptr %8, align 8, !tbaa !234
  %35 = getelementptr inbounds nuw %struct.VAAPIEncodePicture, ptr %34, i32 0, i32 4
  store ptr %33, ptr %35, align 8, !tbaa !316
  %36 = load ptr, ptr %12, align 8, !tbaa !33
  %37 = getelementptr inbounds nuw %struct.VAAPIEncodeContext, ptr %36, i32 0, i32 20
  %38 = load ptr, ptr %37, align 8, !tbaa !62
  %39 = getelementptr inbounds nuw %struct.AVVAAPIDeviceContext, ptr %38, i32 0, i32 0
  %40 = load ptr, ptr %39, align 8, !tbaa !75
  %41 = load ptr, ptr %12, align 8, !tbaa !33
  %42 = getelementptr inbounds nuw %struct.VAAPIEncodeContext, ptr %41, i32 0, i32 19
  %43 = load i32, ptr %42, align 8, !tbaa !57
  %44 = load i32, ptr %9, align 4, !tbaa !37
  %45 = load i64, ptr %11, align 8, !tbaa !102
  %46 = trunc i64 %45 to i32
  %47 = load ptr, ptr %10, align 8, !tbaa !133
  %48 = call i32 @vaCreateBuffer(ptr noundef %40, i32 noundef %43, i32 noundef %44, i32 noundef %46, i32 noundef 1, ptr noundef %47, ptr noundef %15)
  store i32 %48, ptr %13, align 4, !tbaa !37
  %49 = load i32, ptr %13, align 4, !tbaa !37
  %50 = icmp ne i32 %49, 0
  br i1 %50, label %51, label %57

51:                                               ; preds = %32
  %52 = load ptr, ptr %7, align 8, !tbaa !4
  %53 = load i32, ptr %9, align 4, !tbaa !37
  %54 = load i32, ptr %13, align 4, !tbaa !37
  %55 = load i32, ptr %13, align 4, !tbaa !37
  %56 = call ptr @vaErrorStr(i32 noundef %55)
  call void (ptr, i32, ptr, ...) @av_log(ptr noundef %52, i32 noundef 16, ptr noundef @.str.40, i32 noundef %53, i32 noundef %54, ptr noundef %56)
  store i32 -5, ptr %6, align 4
  store i32 1, ptr %16, align 4
  br label %71

57:                                               ; preds = %32
  %58 = load i32, ptr %15, align 4, !tbaa !37
  %59 = load ptr, ptr %8, align 8, !tbaa !234
  %60 = getelementptr inbounds nuw %struct.VAAPIEncodePicture, ptr %59, i32 0, i32 4
  %61 = load ptr, ptr %60, align 8, !tbaa !316
  %62 = load ptr, ptr %8, align 8, !tbaa !234
  %63 = getelementptr inbounds nuw %struct.VAAPIEncodePicture, ptr %62, i32 0, i32 3
  %64 = load i32, ptr %63, align 8, !tbaa !262
  %65 = add nsw i32 %64, 1
  store i32 %65, ptr %63, align 8, !tbaa !262
  %66 = sext i32 %64 to i64
  %67 = getelementptr inbounds i32, ptr %61, i64 %66
  store i32 %58, ptr %67, align 4, !tbaa !37
  %68 = load ptr, ptr %7, align 8, !tbaa !4
  %69 = load i32, ptr %9, align 4, !tbaa !37
  %70 = load i32, ptr %15, align 4, !tbaa !37
  call void (ptr, i32, ptr, ...) @av_log(ptr noundef %68, i32 noundef 48, ptr noundef @.str.41, i32 noundef %69, i32 noundef %70)
  store i32 0, ptr %6, align 4
  store i32 1, ptr %16, align 4
  br label %71

71:                                               ; preds = %57, %51, %31
  call void @llvm.lifetime.end.p0(i64 4, ptr %15) #10
  call void @llvm.lifetime.end.p0(i64 8, ptr %14) #10
  call void @llvm.lifetime.end.p0(i64 4, ptr %13) #10
  call void @llvm.lifetime.end.p0(i64 8, ptr %12) #10
  %72 = load i32, ptr %6, align 4
  ret i32 %72
}