; Function Attrs: nounwind uwtable
define internal fastcc range(i32 -12, 1) i32 @vaapi_encode_make_param_buffer(ptr noundef %0, ptr noundef captures(none) %1, i32 noundef %2, ptr noundef %3, i64 noundef %4) unnamed_addr #0 {
  %6 = alloca i32, align 4
  %7 = getelementptr inbounds nuw i8, ptr %0, i64 32
  %8 = load ptr, ptr %7, align 8, !tbaa !4
  call void @llvm.lifetime.start.p0(i64 4, ptr nonnull %6) #9
  %9 = getelementptr inbounds nuw i8, ptr %1, i64 24
  %10 = load ptr, ptr %9, align 8, !tbaa !254
  %11 = getelementptr inbounds nuw i8, ptr %1, i64 16
  %12 = load i32, ptr %11, align 8, !tbaa !220
  %13 = add nsw i32 %12, 1
  %14 = sext i32 %13 to i64
  %15 = tail call ptr @av_realloc_array(ptr noundef %10, i64 noundef 4, i64 noundef %14) #9
  %.not = icmp eq ptr %15, null
  br i1 %.not, label %33, label %16

16:                                               ; preds = %5
  store ptr %15, ptr %9, align 8, !tbaa !254
  %17 = getelementptr inbounds nuw i8, ptr %8, i64 1312
  %18 = load ptr, ptr %17, align 8, !tbaa !52
  %19 = load ptr, ptr %18, align 8, !tbaa !65
  %20 = getelementptr inbounds nuw i8, ptr %8, i64 1304
  %21 = load i32, ptr %20, align 8, !tbaa !47
  %22 = trunc i64 %4 to i32
  %23 = call i32 @vaCreateBuffer(ptr noundef %19, i32 noundef %21, i32 noundef %2, i32 noundef %22, i32 noundef 1, ptr noundef %3, ptr noundef nonnull %6) #9
  %.not22 = icmp eq i32 %23, 0
  br i1 %.not22, label %26, label %24

24:                                               ; preds = %16
  %25 = call ptr @vaErrorStr(i32 noundef %23) #9
  call void (ptr, i32, ptr, ...) @av_log(ptr noundef nonnull %0, i32 noundef 16, ptr noundef nonnull @.str.40, i32 noundef %2, i32 noundef %23, ptr noundef %25) #9
  br label %33

26:                                               ; preds = %16
  %27 = load i32, ptr %6, align 4, !tbaa !109
  %28 = load ptr, ptr %9, align 8, !tbaa !254
  %29 = load i32, ptr %11, align 8, !tbaa !220
  %30 = add nsw i32 %29, 1
  store i32 %30, ptr %11, align 8, !tbaa !220
  %31 = sext i32 %29 to i64
  %32 = getelementptr inbounds i32, ptr %28, i64 %31
  store i32 %27, ptr %32, align 4, !tbaa !109
  call void (ptr, i32, ptr, ...) @av_log(ptr noundef nonnull %0, i32 noundef 48, ptr noundef nonnull @.str.41, i32 noundef %2, i32 noundef %27) #9
  br label %33

33:                                               ; preds = %5, %26, %24
  %.0 = phi i32 [ -5, %24 ], [ 0, %26 ], [ -12, %5 ]
  call void @llvm.lifetime.end.p0(i64 4, ptr nonnull %6) #9
  ret i32 %.0
}